target datalayout = "e-m:e-p270:32:32-p271:32:32-p272:64:64-i64:64-i128:128-f80:128-n8:16:32:64-S128"
target triple = "x86_64-pc-linux-gnu"

%struct.TupleTableSlotOps = type { i64, ptr, ptr, ptr, ptr, ptr, ptr, ptr, ptr, ptr, ptr, ptr, ptr }
%struct.FunctionCallInfoBaseData = type { ptr, ptr, ptr, i32, i8, i16, [0 x %struct.NullableDatum] }
%struct.NullableDatum = type { i64, i8 }
%struct.OSAPerGroupState = type { ptr, ptr, ptr, i64, i8 }
%struct.FmgrInfo = type { ptr, i32, i16, i8, i8, i8, ptr, ptr, ptr }
%struct.OSAPerQueryState = type { ptr, ptr, ptr, i8, ptr, ptr, i32, ptr, ptr, ptr, ptr, ptr, ptr, i32, i16, i8, i8, i32, i32, i32, i8, %struct.FmgrInfo }
%struct.TupleTableSlot = type { i32, i16, i16, ptr, ptr, ptr, ptr, ptr, %struct.ItemPointerData, i32 }
%struct.ItemPointerData = type { %struct.BlockIdData, i16 }
%struct.BlockIdData = type { i16, i16 }

@.str.1 = private unnamed_addr constant [17 x i8] c"orderedsetaggs.c\00", align 1
@InterruptPending = external global i32, align 4
@.str.3 = private unnamed_addr constant [55 x i8] c"wrong number of arguments in hypothetical-set function\00", align 1
@__func__.hypothetical_rank_common = private unnamed_addr constant [25 x i8] c"hypothetical_rank_common\00", align 1

; Function Attrs: inlinehint nounwind uwtable
define internal void @slot_getsomeattrs(ptr noundef %0, i32 noundef %1) #2 {
  %3 = alloca ptr, align 8
  %4 = alloca i32, align 4
  store ptr %0, ptr %3, align 8
  store i32 %1, ptr %4, align 4
  %5 = load ptr, ptr %3, align 8
  %6 = getelementptr inbounds nuw %struct.TupleTableSlot, ptr %5, i32 0, i32 2
  %7 = load i16, ptr %6, align 2
  %8 = sext i16 %7 to i32
  %9 = load i32, ptr %4, align 4
  %10 = icmp slt i32 %8, %9
  br i1 %10, label %11, label %14

11:                                               ; preds = %2
  %12 = load ptr, ptr %3, align 8
  %13 = load i32, ptr %4, align 4
  call void @slot_getsomeattrs_int(ptr noundef %12, i32 noundef %13)
  br label %14

14:                                               ; preds = %11, %2
  ret void
}

; Function Attrs: inlinehint nounwind uwtable
define internal i32 @DatumGetInt32(i64 noundef %0) #2 {
  %2 = alloca i64, align 8
  store i64 %0, ptr %2, align 8
  %3 = load i64, ptr %2, align 8
  %4 = trunc i64 %3 to i32
  ret i32 %4
}

; Function Attrs: inlinehint nounwind uwtable
define internal i64 @slot_getattr(ptr noundef %0, i32 noundef %1, ptr noundef %2) #2 {
  %4 = alloca ptr, align 8
  %5 = alloca i32, align 4
  %6 = alloca ptr, align 8
  store ptr %0, ptr %4, align 8
  store i32 %1, ptr %5, align 4
  store ptr %2, ptr %6, align 8
  %7 = load i32, ptr %5, align 4
  %8 = load ptr, ptr %4, align 8
  %9 = getelementptr inbounds nuw %struct.TupleTableSlot, ptr %8, i32 0, i32 2
  %10 = load i16, ptr %9, align 2
  %11 = sext i16 %10 to i32
  %12 = icmp sgt i32 %7, %11
  br i1 %12, label %13, label %16

13:                                               ; preds = %3
  %14 = load ptr, ptr %4, align 8
  %15 = load i32, ptr %5, align 4
  call void @slot_getsomeattrs(ptr noundef %14, i32 noundef %15)
  br label %16

16:                                               ; preds = %13, %3
  %17 = load ptr, ptr %4, align 8
  %18 = getelementptr inbounds nuw %struct.TupleTableSlot, ptr %17, i32 0, i32 6
  %19 = load ptr, ptr %18, align 8
  %20 = load i32, ptr %5, align 4
  %21 = sub i32 %20, 1
  %22 = sext i32 %21 to i64
  %23 = getelementptr inbounds i8, ptr %19, i64 %22
  %24 = load i8, ptr %23, align 1, !range !4, !noundef !5
  %25 = trunc i8 %24 to i1
  %26 = load ptr, ptr %6, align 8
  %27 = zext i1 %25 to i8
  store i8 %27, ptr %26, align 1
  %28 = load ptr, ptr %4, align 8
  %29 = getelementptr inbounds nuw %struct.TupleTableSlot, ptr %28, i32 0, i32 5
  %30 = load ptr, ptr %29, align 8
  %31 = load i32, ptr %5, align 4
  %32 = sub i32 %31, 1
  %33 = sext i32 %32 to i64
  %34 = getelementptr inbounds i64, ptr %30, i64 %33
  %35 = load i64, ptr %34, align 8
  ret i64 %35
}

; Function Attrs: inlinehint nounwind uwtable
define internal i64 @Int32GetDatum(i32 noundef %0) #2 {
  %2 = alloca i32, align 4
  store i32 %0, ptr %2, align 4
  %3 = load i32, ptr %2, align 4
  %4 = sext i32 %3 to i64
  ret i64 %4
}

; Function Attrs: inlinehint nounwind uwtable
define internal ptr @ExecClearTuple(ptr noundef %0) #2 {
  %2 = alloca ptr, align 8
  store ptr %0, ptr %2, align 8
  %3 = load ptr, ptr %2, align 8
  %4 = getelementptr inbounds nuw %struct.TupleTableSlot, ptr %3, i32 0, i32 3
  %5 = load ptr, ptr %4, align 8
  %6 = getelementptr inbounds nuw %struct.TupleTableSlotOps, ptr %5, i32 0, i32 3
  %7 = load ptr, ptr %6, align 8
  %8 = load ptr, ptr %2, align 8
  call void %7(ptr noundef %8)
  %9 = load ptr, ptr %2, align 8
  ret ptr %9
}

; Function Attrs: inlinehint nounwind uwtable
define internal ptr @DatumGetPointer(i64 noundef %0) #2 {
  %2 = alloca i64, align 8
  store i64 %0, ptr %2, align 8
  %3 = load i64, ptr %2, align 8
  %4 = inttoptr i64 %3 to ptr
  ret ptr %4
}

; Function Attrs: nounwind uwtable
define internal i64 @hypothetical_rank_common(ptr noundef %0, i32 noundef %1, ptr noundef %2) #0 {
  %4 = alloca i64, align 8
  %5 = alloca ptr, align 8
  %6 = alloca i32, align 4
  %7 = alloca ptr, align 8
  %8 = alloca i32, align 4
  %9 = alloca i64, align 8
  %10 = alloca ptr, align 8
  %11 = alloca ptr, align 8
  %12 = alloca i32, align 4
  %13 = alloca i32, align 4
  %14 = alloca i8, align 1
  %15 = alloca i64, align 8
  store ptr %0, ptr %5, align 8
  store i32 %1, ptr %6, align 4
  store ptr %2, ptr %7, align 8
  call void @llvm.lifetime.start.p0(i64 4, ptr %8) #8
  %16 = load ptr, ptr %5, align 8
  %17 = getelementptr inbounds nuw %struct.FunctionCallInfoBaseData, ptr %16, i32 0, i32 5
  %18 = load i16, ptr %17, align 2
  %19 = sext i16 %18 to i32
  %20 = sub i32 %19, 1
  store i32 %20, ptr %8, align 4
  call void @llvm.lifetime.start.p0(i64 8, ptr %9) #8
  store i64 1, ptr %9, align 8
  call void @llvm.lifetime.start.p0(i64 8, ptr %10) #8
  call void @llvm.lifetime.start.p0(i64 8, ptr %11) #8
  call void @llvm.lifetime.start.p0(i64 4, ptr %12) #8
  %21 = load ptr, ptr %5, align 8
  %22 = getelementptr inbounds nuw %struct.FunctionCallInfoBaseData, ptr %21, i32 0, i32 6
  %23 = getelementptr inbounds [0 x %struct.NullableDatum], ptr %22, i64 0, i64 0
  %24 = getelementptr inbounds nuw %struct.NullableDatum, ptr %23, i32 0, i32 1
  %25 = load i8, ptr %24, align 8, !range !4, !noundef !5
  %26 = trunc i8 %25 to i1
  br i1 %26, label %27, label %29

27:                                               ; preds = %3
  %28 = load ptr, ptr %7, align 8
  store i64 0, ptr %28, align 8
  store i64 1, ptr %4, align 8
  store i32 1, ptr %13, align 4
  br label %174

29:                                               ; preds = %3
  %30 = load ptr, ptr %5, align 8
  %31 = getelementptr inbounds nuw %struct.FunctionCallInfoBaseData, ptr %30, i32 0, i32 6
  %32 = getelementptr inbounds [0 x %struct.NullableDatum], ptr %31, i64 0, i64 0
  %33 = getelementptr inbounds nuw %struct.NullableDatum, ptr %32, i32 0, i32 0
  %34 = load i64, ptr %33, align 8
  %35 = call ptr @DatumGetPointer(i64 noundef %34)
  store ptr %35, ptr %10, align 8
  %36 = load ptr, ptr %10, align 8
  %37 = getelementptr inbounds nuw %struct.OSAPerGroupState, ptr %36, i32 0, i32 3
  %38 = load i64, ptr %37, align 8
  %39 = load ptr, ptr %7, align 8
  store i64 %38, ptr %39, align 8
  %40 = load i32, ptr %8, align 4
  %41 = srem i32 %40, 2
  %42 = icmp ne i32 %41, 0
  br i1 %42, label %43, label %54

43:                                               ; preds = %29
  br label %44

44:                                               ; preds = %43
  br i1 true, label %45, label %47

45:                                               ; preds = %44
  %46 = call zeroext i1 @errstart_cold(i32 noundef 21, ptr noundef null) #9
  br i1 %46, label %49, label %51

47:                                               ; preds = %44
  %48 = call zeroext i1 @errstart(i32 noundef 21, ptr noundef null)
  br i1 %48, label %49, label %51

49:                                               ; preds = %47, %45
  %50 = call i32 (ptr, ...) @errmsg_internal(ptr noundef @.str.3)
  call void @errfinish(ptr noundef @.str.1, i32 noundef 1194, ptr noundef @__func__.hypothetical_rank_common)
  br label %51

51:                                               ; preds = %49, %47, %45
  unreachable

52:                                               ; No predecessors!
  br label %53

53:                                               ; preds = %52
  br label %54

54:                                               ; preds = %53, %29
  %55 = load i32, ptr %8, align 4
  %56 = sdiv i32 %55, 2
  store i32 %56, ptr %8, align 4
  %57 = load ptr, ptr %5, align 8
  %58 = load i32, ptr %8, align 4
  %59 = load ptr, ptr %10, align 8
  %60 = getelementptr inbounds nuw %struct.OSAPerGroupState, ptr %59, i32 0, i32 0
  %61 = load ptr, ptr %60, align 8
  %62 = getelementptr inbounds nuw %struct.OSAPerQueryState, ptr %61, i32 0, i32 4
  %63 = load ptr, ptr %62, align 8
  call void @hypothetical_check_argtypes(ptr noundef %57, i32 noundef %58, ptr noundef %63)
  %64 = load ptr, ptr %10, align 8
  %65 = getelementptr inbounds nuw %struct.OSAPerGroupState, ptr %64, i32 0, i32 0
  %66 = load ptr, ptr %65, align 8
  %67 = getelementptr inbounds nuw %struct.OSAPerQueryState, ptr %66, i32 0, i32 5
  %68 = load ptr, ptr %67, align 8
  store ptr %68, ptr %11, align 8
  %69 = load ptr, ptr %11, align 8
  %70 = call ptr @ExecClearTuple(ptr noundef %69)
  store i32 0, ptr %12, align 4
  br label %71

71:                                               ; preds = %106, %54
  %72 = load i32, ptr %12, align 4
  %73 = load i32, ptr %8, align 4
  %74 = icmp slt i32 %72, %73
  br i1 %74, label %75, label %109

75:                                               ; preds = %71
  %76 = load ptr, ptr %5, align 8
  %77 = getelementptr inbounds nuw %struct.FunctionCallInfoBaseData, ptr %76, i32 0, i32 6
  %78 = load i32, ptr %12, align 4
  %79 = add i32 %78, 1
  %80 = sext i32 %79 to i64
  %81 = getelementptr inbounds [0 x %struct.NullableDatum], ptr %77, i64 0, i64 %80
  %82 = getelementptr inbounds nuw %struct.NullableDatum, ptr %81, i32 0, i32 0
  %83 = load i64, ptr %82, align 8
  %84 = load ptr, ptr %11, align 8
  %85 = getelementptr inbounds nuw %struct.TupleTableSlot, ptr %84, i32 0, i32 5
  %86 = load ptr, ptr %85, align 8
  %87 = load i32, ptr %12, align 4
  %88 = sext i32 %87 to i64
  %89 = getelementptr inbounds i64, ptr %86, i64 %88
  store i64 %83, ptr %89, align 8
  %90 = load ptr, ptr %5, align 8
  %91 = getelementptr inbounds nuw %struct.FunctionCallInfoBaseData, ptr %90, i32 0, i32 6
  %92 = load i32, ptr %12, align 4
  %93 = add i32 %92, 1
  %94 = sext i32 %93 to i64
  %95 = getelementptr inbounds [0 x %struct.NullableDatum], ptr %91, i64 0, i64 %94
  %96 = getelementptr inbounds nuw %struct.NullableDatum, ptr %95, i32 0, i32 1
  %97 = load i8, ptr %96, align 8, !range !4, !noundef !5
  %98 = trunc i8 %97 to i1
  %99 = load ptr, ptr %11, align 8
  %100 = getelementptr inbounds nuw %struct.TupleTableSlot, ptr %99, i32 0, i32 6
  %101 = load ptr, ptr %100, align 8
  %102 = load i32, ptr %12, align 4
  %103 = sext i32 %102 to i64
  %104 = getelementptr inbounds i8, ptr %101, i64 %103
  %105 = zext i1 %98 to i8
  store i8 %105, ptr %104, align 1
  br label %106

106:                                              ; preds = %75
  %107 = load i32, ptr %12, align 4
  %108 = add i32 %107, 1
  store i32 %108, ptr %12, align 4
  br label %71, !llvm.loop !16

109:                                              ; preds = %71
  %110 = load i32, ptr %6, align 4
  %111 = call i64 @Int32GetDatum(i32 noundef %110)
  %112 = load ptr, ptr %11, align 8
  %113 = getelementptr inbounds nuw %struct.TupleTableSlot, ptr %112, i32 0, i32 5
  %114 = load ptr, ptr %113, align 8
  %115 = load i32, ptr %12, align 4
  %116 = sext i32 %115 to i64
  %117 = getelementptr inbounds i64, ptr %114, i64 %116
  store i64 %111, ptr %117, align 8
  %118 = load ptr, ptr %11, align 8
  %119 = getelementptr inbounds nuw %struct.TupleTableSlot, ptr %118, i32 0, i32 6
  %120 = load ptr, ptr %119, align 8
  %121 = load i32, ptr %12, align 4
  %122 = sext i32 %121 to i64
  %123 = getelementptr inbounds i8, ptr %120, i64 %122
  store i8 0, ptr %123, align 1
  %124 = load ptr, ptr %11, align 8
  %125 = call ptr @ExecStoreVirtualTuple(ptr noundef %124)
  %126 = load ptr, ptr %10, align 8
  %127 = getelementptr inbounds nuw %struct.OSAPerGroupState, ptr %126, i32 0, i32 2
  %128 = load ptr, ptr %127, align 8
  %129 = load ptr, ptr %11, align 8
  call void @tuplesort_puttupleslot(ptr noundef %128, ptr noundef %129)
  %130 = load ptr, ptr %10, align 8
  %131 = getelementptr inbounds nuw %struct.OSAPerGroupState, ptr %130, i32 0, i32 2
  %132 = load ptr, ptr %131, align 8
  call void @tuplesort_performsort(ptr noundef %132)
  %133 = load ptr, ptr %10, align 8
  %134 = getelementptr inbounds nuw %struct.OSAPerGroupState, ptr %133, i32 0, i32 4
  store i8 1, ptr %134, align 8
  br label %135

135:                                              ; preds = %169, %109
  %136 = load ptr, ptr %10, align 8
  %137 = getelementptr inbounds nuw %struct.OSAPerGroupState, ptr %136, i32 0, i32 2
  %138 = load ptr, ptr %137, align 8
  %139 = load ptr, ptr %11, align 8
  %140 = call zeroext i1 @tuplesort_gettupleslot(ptr noundef %138, i1 noundef zeroext true, i1 noundef zeroext true, ptr noundef %139, ptr noundef null)
  br i1 %140, label %141, label %170

141:                                              ; preds = %135
  call void @llvm.lifetime.start.p0(i64 1, ptr %14) #8
  call void @llvm.lifetime.start.p0(i64 8, ptr %15) #8
  %142 = load ptr, ptr %11, align 8
  %143 = load i32, ptr %8, align 4
  %144 = add i32 %143, 1
  %145 = call i64 @slot_getattr(ptr noundef %142, i32 noundef %144, ptr noundef %14)
  store i64 %145, ptr %15, align 8
  %146 = load i8, ptr %14, align 1, !range !4, !noundef !5
  %147 = trunc i8 %146 to i1
  br i1 %147, label %153, label %148

148:                                              ; preds = %141
  %149 = load i64, ptr %15, align 8
  %150 = call i32 @DatumGetInt32(i64 noundef %149)
  %151 = icmp ne i32 %150, 0
  br i1 %151, label %152, label %153

152:                                              ; preds = %148
  store i32 8, ptr %13, align 4
  br label %167

153:                                              ; preds = %148, %141
  %154 = load i64, ptr %9, align 8
  %155 = add i64 %154, 1
  store i64 %155, ptr %9, align 8
  br label %156

156:                                              ; preds = %153
  %157 = load volatile i32, ptr @InterruptPending, align 4
  %158 = icmp ne i32 %157, 0
  %159 = zext i1 %158 to i32
  %160 = sext i32 %159 to i64
  %161 = call i64 @llvm.expect.i64(i64 %160, i64 0)
  %162 = icmp ne i64 %161, 0
  br i1 %162, label %163, label %164

163:                                              ; preds = %156
  call void @ProcessInterrupts()
  br label %164

164:                                              ; preds = %163, %156
  br label %165

165:                                              ; preds = %164
  br label %166

166:                                              ; preds = %165
  store i32 0, ptr %13, align 4
  br label %167

167:                                              ; preds = %166, %152
  call void @llvm.lifetime.end.p0(i64 8, ptr %15) #8
  call void @llvm.lifetime.end.p0(i64 1, ptr %14) #8
  %168 = load i32, ptr %13, align 4
  switch i32 %168, label %176 [
    i32 0, label %169
    i32 8, label %170
  ]

169:                                              ; preds = %167
  br label %135, !llvm.loop !17

170:                                              ; preds = %167, %135
  %171 = load ptr, ptr %11, align 8
  %172 = call ptr @ExecClearTuple(ptr noundef %171)
  %173 = load i64, ptr %9, align 8
  store i64 %173, ptr %4, align 8
  store i32 1, ptr %13, align 4
  br label %174

174:                                              ; preds = %170, %27
  call void @llvm.lifetime.end.p0(i64 4, ptr %12) #8
  call void @llvm.lifetime.end.p0(i64 8, ptr %11) #8
  call void @llvm.lifetime.end.p0(i64 8, ptr %10) #8
  call void @llvm.lifetime.end.p0(i64 8, ptr %9) #8
  call void @llvm.lifetime.end.p0(i64 4, ptr %8) #8
  %175 = load i64, ptr %4, align 8
  ret i64 %175

176:                                              ; preds = %167
  unreachable
}