; Function Attrs: nounwind uwtable
define internal fastcc i64 @hypothetical_rank_common(ptr noundef readonly captures(none) %0, i32 noundef range(i32 -1, 2) %1, ptr noundef nonnull writeonly captures(none) initializes((0, 8)) %2) unnamed_addr #0 {
  %4 = getelementptr inbounds nuw i8, ptr %0, i64 30
  %5 = load i16, ptr %4, align 2
  %6 = sext i16 %5 to i32
  %7 = add nsw i32 %6, -1
  %8 = getelementptr inbounds nuw i8, ptr %0, i64 32
  %9 = getelementptr inbounds nuw i8, ptr %0, i64 40
  %10 = load i8, ptr %9, align 8, !range !4, !noundef !5
  %11 = trunc nuw i8 %10 to i1
  br i1 %11, label %12, label %13

12:                                               ; preds = %3
  store i64 0, ptr %2, align 8
  br label %85

13:                                               ; preds = %3
  %14 = load i64, ptr %8, align 8
  %15 = inttoptr i64 %14 to ptr
  %16 = getelementptr inbounds nuw i8, ptr %15, i64 24
  %17 = load i64, ptr %16, align 8
  store i64 %17, ptr %2, align 8
  %18 = and i32 %7, 1
  %.not = icmp eq i32 %18, 0
  br i1 %.not, label %22, label %19

19:                                               ; preds = %13
  %20 = tail call zeroext i1 @errstart_cold(i32 noundef 21, ptr noundef null) #11
  tail call void @llvm.assume(i1 %20)
  %21 = tail call i32 (ptr, ...) @errmsg_internal(ptr noundef nonnull @.str.3) #10
  tail call void @errfinish(ptr noundef nonnull @.str.1, i32 noundef 1194, ptr noundef nonnull @__func__.hypothetical_rank_common) #10
  unreachable

22:                                               ; preds = %13
  %23 = ashr exact i32 %7, 1
  %24 = load ptr, ptr %15, align 8
  %25 = getelementptr inbounds nuw i8, ptr %24, i64 32
  %26 = load ptr, ptr %25, align 8
  tail call fastcc void @hypothetical_check_argtypes(ptr noundef nonnull %0, i32 noundef %23, ptr noundef %26)
  %27 = load ptr, ptr %15, align 8
  %28 = getelementptr inbounds nuw i8, ptr %27, i64 40
  %29 = load ptr, ptr %28, align 8
  %30 = getelementptr inbounds nuw i8, ptr %29, i64 8
  %31 = load ptr, ptr %30, align 8
  %32 = getelementptr inbounds nuw i8, ptr %31, i64 24
  %33 = load ptr, ptr %32, align 8
  tail call void %33(ptr noundef %29) #10
  %34 = icmp sgt i32 %23, 0
  br i1 %34, label %.lr.ph, label %._crit_edge

.lr.ph:                                           ; preds = %22
  %35 = getelementptr inbounds nuw i8, ptr %29, i64 24
  %36 = getelementptr inbounds nuw i8, ptr %29, i64 32
  %wide.trip.count = zext nneg i32 %23 to i64
  br label %37

37:                                               ; preds = %.lr.ph, %37
  %indvars.iv = phi i64 [ 0, %.lr.ph ], [ %indvars.iv.next, %37 ]
  %indvars.iv.next = add nuw nsw i64 %indvars.iv, 1
  %38 = getelementptr inbounds nuw [0 x %struct.NullableDatum], ptr %8, i64 0, i64 %indvars.iv.next
  %39 = load i64, ptr %38, align 8
  %40 = load ptr, ptr %35, align 8
  %41 = getelementptr inbounds nuw i64, ptr %40, i64 %indvars.iv
  store i64 %39, ptr %41, align 8
  %42 = getelementptr inbounds nuw i8, ptr %38, i64 8
  %43 = load i8, ptr %42, align 8, !range !4, !noundef !5
  %44 = load ptr, ptr %36, align 8
  %45 = getelementptr inbounds nuw i8, ptr %44, i64 %indvars.iv
  store i8 %43, ptr %45, align 1
  %exitcond.not = icmp eq i64 %indvars.iv.next, %wide.trip.count
  br i1 %exitcond.not, label %._crit_edge.loopexit, label %37, !llvm.loop !17

._crit_edge.loopexit:                             ; preds = %37
  %46 = zext nneg i32 %23 to i64
  br label %._crit_edge

._crit_edge:                                      ; preds = %22, %._crit_edge.loopexit
  %.044.lcssa = phi i64 [ %46, %._crit_edge.loopexit ], [ 0, %22 ]
  %47 = sext i32 %1 to i64
  %48 = getelementptr inbounds nuw i8, ptr %29, i64 24
  %49 = load ptr, ptr %48, align 8
  %50 = getelementptr inbounds nuw i64, ptr %49, i64 %.044.lcssa
  store i64 %47, ptr %50, align 8
  %51 = getelementptr inbounds nuw i8, ptr %29, i64 32
  %52 = load ptr, ptr %51, align 8
  %53 = getelementptr inbounds nuw i8, ptr %52, i64 %.044.lcssa
  store i8 0, ptr %53, align 1
  %54 = tail call ptr @ExecStoreVirtualTuple(ptr noundef nonnull %29) #10
  %55 = getelementptr inbounds nuw i8, ptr %15, i64 16
  %56 = load ptr, ptr %55, align 8
  tail call void @tuplesort_puttupleslot(ptr noundef %56, ptr noundef nonnull %29) #10
  %57 = load ptr, ptr %55, align 8
  tail call void @tuplesort_performsort(ptr noundef %57) #10
  %58 = getelementptr inbounds nuw i8, ptr %15, i64 32
  store i8 1, ptr %58, align 8
  %59 = load ptr, ptr %55, align 8
  %60 = tail call zeroext i1 @tuplesort_gettupleslot(ptr noundef %59, i1 noundef zeroext true, i1 noundef zeroext true, ptr noundef nonnull %29, ptr noundef null) #10
  br i1 %60, label %.lr.ph56, label %.thread

.lr.ph56:                                         ; preds = %._crit_edge
  %61 = getelementptr inbounds nuw i8, ptr %29, i64 6
  %62 = add nsw i32 %23, 1
  %63 = sext i32 %23 to i64
  br label %64

64:                                               ; preds = %.lr.ph56, %79
  %.04554 = phi i64 [ 1, %.lr.ph56 ], [ %76, %79 ]
  %65 = load i16, ptr %61, align 2
  %66 = sext i16 %65 to i32
  %.not52 = icmp slt i32 %23, %66
  br i1 %.not52, label %slot_getattr.exit, label %slot_getsomeattrs.exit.i

slot_getsomeattrs.exit.i:                         ; preds = %64
  tail call void @slot_getsomeattrs_int(ptr noundef nonnull %29, i32 noundef range(i32 -16383, 16385) %62) #10
  br label %slot_getattr.exit

slot_getattr.exit:                                ; preds = %64, %slot_getsomeattrs.exit.i
  %67 = load ptr, ptr %51, align 8
  %68 = getelementptr inbounds i8, ptr %67, i64 %63
  %69 = load i8, ptr %68, align 1, !range !4, !noundef !5
  %70 = load ptr, ptr %48, align 8
  %71 = getelementptr inbounds i64, ptr %70, i64 %63
  %72 = load i64, ptr %71, align 8
  %73 = trunc nuw i8 %69 to i1
  %74 = and i64 %72, 4294967295
  %.not47 = icmp eq i64 %74, 0
  %or.cond = select i1 %73, i1 true, i1 %.not47
  br i1 %or.cond, label %75, label %.thread

75:                                               ; preds = %slot_getattr.exit
  %76 = add i64 %.04554, 1
  %77 = load volatile i32, ptr @InterruptPending, align 4
  %.not48 = icmp eq i32 %77, 0
  br i1 %.not48, label %79, label %78, !prof !16

78:                                               ; preds = %75
  tail call void @ProcessInterrupts() #10
  br label %79

79:                                               ; preds = %75, %78
  %80 = load ptr, ptr %55, align 8
  %81 = tail call zeroext i1 @tuplesort_gettupleslot(ptr noundef %80, i1 noundef zeroext true, i1 noundef zeroext true, ptr noundef nonnull %29, ptr noundef null) #10
  br i1 %81, label %64, label %.thread

.thread:                                          ; preds = %79, %slot_getattr.exit, %._crit_edge
  %.045.lcssa = phi i64 [ 1, %._crit_edge ], [ %.04554, %slot_getattr.exit ], [ %76, %79 ]
  %82 = load ptr, ptr %30, align 8
  %83 = getelementptr inbounds nuw i8, ptr %82, i64 24
  %84 = load ptr, ptr %83, align 8
  tail call void %84(ptr noundef nonnull %29) #10
  br label %85

85:                                               ; preds = %.thread, %12
  %.0 = phi i64 [ 1, %12 ], [ %.045.lcssa, %.thread ]
  ret i64 %.0
}